target datalayout = "e-m:e-p270:32:32-p271:32:32-p272:64:64-i64:64-i128:128-f80:128-n8:16:32:64-S128"
target triple = "x86_64-unknown-linux-gnu"

%"class.boost::detail::shared_count" = type { ptr }
%"class.QuantLib::DayCounter" = type { %"class.boost::shared_ptr.16" }
%"class.boost::shared_ptr.16" = type { ptr, %"class.boost::detail::shared_count" }
%"class.QuantLib::Period" = type { i32, i32 }
%"class.QuantLib::MakeVanillaSwap" = type { %"class.QuantLib::Period", %"class.boost::shared_ptr.39", double, %"class.QuantLib::Period", i32, %"class.QuantLib::Date", %"class.QuantLib::Date", %"class.QuantLib::Calendar", %"class.QuantLib::Calendar", i32, double, %"class.QuantLib::Period", %"class.QuantLib::Period", i32, i32, i32, i32, i32, i32, i8, i8, %"class.QuantLib::Date", %"class.QuantLib::Date", %"class.QuantLib::Date", %"class.QuantLib::Date", double, %"class.QuantLib::DayCounter", %"class.QuantLib::DayCounter", %"class.boost::optional", %"class.boost::optional.40", %"class.boost::shared_ptr.42" }
%"class.boost::shared_ptr.39" = type { ptr, %"class.boost::detail::shared_count" }
%"class.QuantLib::Calendar" = type { %"class.boost::shared_ptr.17" }
%"class.boost::shared_ptr.17" = type { ptr, %"class.boost::detail::shared_count" }
%"class.QuantLib::Date" = type { i64 }
%"class.boost::optional" = type { %"class.boost::optional_detail::tc_optional_base" }
%"class.boost::optional_detail::tc_optional_base" = type { i8, i8 }
%"class.boost::optional.40" = type { %"class.boost::optional_detail::tc_optional_base.41" }
%"class.boost::optional_detail::tc_optional_base.41" = type { i8, i32 }
%"class.boost::shared_ptr.42" = type { ptr, %"class.boost::detail::shared_count" }
%"class.QuantLib::MakeCapFloor" = type { i32, double, i8, i8, %"class.QuantLib::MakeVanillaSwap", %"class.boost::shared_ptr.42" }

; Function Attrs: mustprogress uwtable
define noundef nonnull align 8 dereferenceable(304) ptr @_ZN8QuantLib12MakeCapFloor17withEffectiveDateERKNS_4DateEb(ptr noundef nonnull align 8 dereferenceable(304) %this, ptr noundef nonnull align 8 dereferenceable(8) %effectiveDate, i1 noundef zeroext %firstCapletExcluded) #2 align 2 {
entry:
  %this.addr = alloca ptr, align 8
  %effectiveDate.addr = alloca ptr, align 8
  %firstCapletExcluded.addr = alloca i8, align 1
  store ptr %this, ptr %this.addr, align 8, !tbaa !3
  store ptr %effectiveDate, ptr %effectiveDate.addr, align 8, !tbaa !3
  %storedv = zext i1 %firstCapletExcluded to i8
  store i8 %storedv, ptr %firstCapletExcluded.addr, align 1, !tbaa !87
  %this1 = load ptr, ptr %this.addr, align 8
  %makeVanillaSwap_ = getelementptr inbounds nuw %"class.QuantLib::MakeCapFloor", ptr %this1, i32 0, i32 4
  %0 = load ptr, ptr %effectiveDate.addr, align 8, !tbaa !3
  %call = call noundef nonnull align 8 dereferenceable(264) ptr @_ZN8QuantLib15MakeVanillaSwap17withEffectiveDateERKNS_4DateE(ptr noundef nonnull align 8 dereferenceable(264) %makeVanillaSwap_, ptr noundef nonnull align 8 dereferenceable(8) %0)
  %1 = load i8, ptr %firstCapletExcluded.addr, align 1, !tbaa !87, !range !49, !noundef !50
  %loadedv = trunc i8 %1 to i1
  %firstCapletExcluded_ = getelementptr inbounds nuw %"class.QuantLib::MakeCapFloor", ptr %this1, i32 0, i32 2
  %storedv2 = zext i1 %loadedv to i8
  store i8 %storedv2, ptr %firstCapletExcluded_, align 8, !tbaa !41
  ret ptr %this1
}