; Function Attrs: mustprogress uwtable
define noundef nonnull align 8 dereferenceable(304) ptr @_ZN8QuantLib12MakeCapFloor17withEffectiveDateERKNS_4DateEb(ptr noundef nonnull returned align 8 dereferenceable(304) %this, ptr noundef nonnull align 8 dereferenceable(8) %effectiveDate, i1 noundef zeroext %firstCapletExcluded) local_unnamed_addr #7 align 2 {
entry:
  %storedv = zext i1 %firstCapletExcluded to i8
  %makeVanillaSwap_ = getelementptr inbounds nuw i8, ptr %this, i64 24
  %call = tail call noundef nonnull align 8 dereferenceable(264) ptr @_ZN8QuantLib15MakeVanillaSwap17withEffectiveDateERKNS_4DateE(ptr noundef nonnull align 8 dereferenceable(264) %makeVanillaSwap_, ptr noundef nonnull align 8 dereferenceable(8) %effectiveDate)
  %firstCapletExcluded_ = getelementptr inbounds nuw i8, ptr %this, i64 16
  store i8 %storedv, ptr %firstCapletExcluded_, align 8, !tbaa !62
  ret ptr %this
}